
align-test.o:     file format elf64-littleriscv


Disassembly of section .text:

0000000000000000 <align_4_0>:
   0:	0001                	nop
   2:	00000013          	nop
   6:	00000013          	nop
   a:	00000013          	nop
   e:	00000013          	nop
  12:	00000013          	nop
  16:	00000013          	nop
  1a:	00000013          	nop
  1e:	00000013          	nop
  22:	00000013          	nop
  26:	00000013          	nop
  2a:	00000013          	nop
  2e:	00000013          	nop
  32:	00000013          	nop
  36:	00000013          	nop
  3a:	00000013          	nop
  3e:	0001                	nop
  40:	00000013          	nop
  44:	00000013          	nop
  48:	00000013          	nop
  4c:	02000013          	li	zero,32

0000000000000050 <align_4_1>:
  50:	0001                	nop
  52:	00000013          	nop
  56:	00000013          	nop
  5a:	00000013          	nop
  5e:	00000013          	nop
  62:	00000013          	nop
  66:	00000013          	nop
  6a:	00000013          	nop
  6e:	00000013          	nop
  72:	00000013          	nop
  76:	00000013          	nop
  7a:	00000013          	nop
  7e:	00000013          	nop
  82:	00000013          	nop
  86:	00000013          	nop
  8a:	00000013          	nop
  8e:	00100013          	li	zero,1
  92:	0001                	nop
  94:	00000013          	nop
  98:	00000013          	nop
  9c:	00000013          	nop
  a0:	02000013          	li	zero,32

00000000000000a4 <align_4_2>:
  a4:	0001                	nop
  a6:	00000013          	nop
  aa:	00000013          	nop
  ae:	00000013          	nop
  b2:	00000013          	nop
  b6:	00000013          	nop
  ba:	00000013          	nop
  be:	00000013          	nop
  c2:	00000013          	nop
  c6:	00000013          	nop
  ca:	00000013          	nop
  ce:	00000013          	nop
  d2:	00000013          	nop
  d6:	00000013          	nop
  da:	00000013          	nop
  de:	00000013          	nop
  e2:	00100013          	li	zero,1
  e6:	00200013          	li	zero,2
  ea:	00300013          	li	zero,3
  ee:	0001                	nop
  f0:	00000013          	nop
  f4:	00000013          	nop
  f8:	00000013          	nop
  fc:	02000013          	li	zero,32

0000000000000100 <align_4_3>:
 100:	0001                	nop
 102:	00000013          	nop
 106:	00000013          	nop
 10a:	00000013          	nop
 10e:	00000013          	nop
 112:	00000013          	nop
 116:	00000013          	nop
 11a:	00000013          	nop
 11e:	00000013          	nop
 122:	00000013          	nop
 126:	00000013          	nop
 12a:	00000013          	nop
 12e:	00000013          	nop
 132:	00000013          	nop
 136:	00000013          	nop
 13a:	00000013          	nop
 13e:	00100013          	li	zero,1
 142:	00200013          	li	zero,2
 146:	00300013          	li	zero,3
 14a:	0001                	nop
 14c:	00000013          	nop
 150:	00000013          	nop
 154:	00000013          	nop
 158:	02000013          	li	zero,32
	...
